target datalayout = "e-m:e-p270:32:32-p271:32:32-p272:64:64-i64:64-i128:128-f80:128-n8:16:32:64-S128"
target triple = "x86_64-pc-linux-gnu"

@.str.1 = private unnamed_addr constant [64 x i8] c"ensure_bufsize: Could not allocate more memory: %s (errno: %d)\0A\00", align 1

; Function Attrs: nounwind uwtable
define ptr @ensure_bufsize(ptr noundef %0, ptr noundef %1, i64 noundef %2, i64 noundef %3) #0 {
  %5 = alloca ptr, align 8
  %6 = alloca ptr, align 8
  %7 = alloca ptr, align 8
  %8 = alloca i64, align 8
  %9 = alloca i64, align 8
  %10 = alloca ptr, align 8
  %11 = alloca i32, align 4
  store ptr %0, ptr %6, align 8, !tbaa !3
  store ptr %1, ptr %7, align 8, !tbaa !13
  store i64 %2, ptr %8, align 8, !tbaa !8
  store i64 %3, ptr %9, align 8, !tbaa !8
  call void @llvm.lifetime.start.p0(i64 8, ptr %10) #9
  %12 = load ptr, ptr %6, align 8, !tbaa !3
  store ptr %12, ptr %10, align 8, !tbaa !3
  %13 = load ptr, ptr %7, align 8, !tbaa !13
  %14 = load i64, ptr %13, align 8, !tbaa !8
  %15 = load i64, ptr %8, align 8, !tbaa !8
  %16 = sub i64 %14, %15
  %17 = load i64, ptr %9, align 8, !tbaa !8
  %18 = icmp ult i64 %16, %17
  br i1 %18, label %19, label %38

19:                                               ; preds = %4
  %20 = load ptr, ptr %6, align 8, !tbaa !3
  %21 = load ptr, ptr %7, align 8, !tbaa !13
  %22 = load i64, ptr %21, align 8, !tbaa !8
  %23 = add i64 %22, 512
  %24 = call ptr @realloc(ptr noundef %20, i64 noundef %23) #11
  store ptr %24, ptr %10, align 8, !tbaa !3
  %25 = load ptr, ptr %10, align 8, !tbaa !3
  %26 = icmp ne ptr %25, null
  br i1 %26, label %34, label %27

27:                                               ; preds = %19
  %28 = call ptr @__errno_location() #12
  %29 = load i32, ptr %28, align 4, !tbaa !11
  %30 = call ptr @strerror(i32 noundef %29) #9
  %31 = call ptr @__errno_location() #12
  %32 = load i32, ptr %31, align 4, !tbaa !11
  call void (ptr, ...) @cli_errmsg(ptr noundef @.str.1, ptr noundef %30, i32 noundef %32)
  %33 = load ptr, ptr %6, align 8, !tbaa !3
  call void @free(ptr noundef %33) #9
  store ptr null, ptr %5, align 8
  store i32 1, ptr %11, align 4
  br label %40

34:                                               ; preds = %19
  %35 = load ptr, ptr %7, align 8, !tbaa !13
  %36 = load i64, ptr %35, align 8, !tbaa !8
  %37 = add i64 %36, 512
  store i64 %37, ptr %35, align 8, !tbaa !8
  br label %38

38:                                               ; preds = %34, %4
  %39 = load ptr, ptr %10, align 8, !tbaa !3
  store ptr %39, ptr %5, align 8
  store i32 1, ptr %11, align 4
  br label %40

40:                                               ; preds = %38, %27
  call void @llvm.lifetime.end.p0(i64 8, ptr %10) #9
  %41 = load ptr, ptr %5, align 8
  ret ptr %41
}