; Function Attrs: nounwind uwtable
define noundef ptr @ensure_bufsize(ptr noundef %0, ptr noundef captures(none) %1, i64 noundef %2, i64 noundef %3) local_unnamed_addr #4 {
  %5 = load i64, ptr %1, align 8, !tbaa !6
  %6 = sub i64 %5, %2
  %7 = icmp ult i64 %6, %3
  br i1 %7, label %8, label %19

8:                                                ; preds = %4
  %9 = add i64 %5, 512
  %10 = tail call ptr @realloc(ptr noundef %0, i64 noundef %9) #15
  %.not = icmp eq ptr %10, null
  br i1 %.not, label %11, label %16

11:                                               ; preds = %8
  %12 = tail call ptr @__errno_location() #16
  %13 = load i32, ptr %12, align 4, !tbaa !8
  %14 = tail call ptr @strerror(i32 noundef %13) #14
  %15 = load i32, ptr %12, align 4, !tbaa !8
  tail call void (ptr, ...) @cli_errmsg(ptr noundef nonnull @.str.1, ptr noundef %14, i32 noundef %15) #14
  tail call void @free(ptr noundef %0) #14
  br label %19

16:                                               ; preds = %8
  %17 = load i64, ptr %1, align 8, !tbaa !6
  %18 = add i64 %17, 512
  store i64 %18, ptr %1, align 8, !tbaa !6
  br label %19

19:                                               ; preds = %4, %16, %11
  %.010 = phi ptr [ null, %11 ], [ %10, %16 ], [ %0, %4 ]
  ret ptr %.010
}